; Function Attrs: mustprogress uwtable
define hidden noundef zeroext i1 @_ZNK12mpff_manager15is_plus_epsilonERK4mpff(ptr noundef nonnull readonly align 8 captures(none) dereferenceable(89) %0, ptr noundef nonnull readonly align 4 captures(none) dereferenceable(8) %1) local_unnamed_addr #3 align 2 {
  %3 = load i32, ptr %1, align 4
  %4 = and i32 %3, 1
  %5 = icmp eq i32 %4, 0
  %6 = getelementptr inbounds nuw i8, ptr %1, i64 4
  %7 = load i32, ptr %6, align 4
  %8 = icmp eq i32 %7, -2147483648
  %or.cond = select i1 %5, i1 %8, i1 false
  br i1 %or.cond, label %9, label %_ZNK12mpff_manager15min_significandERK4mpff.exit

9:                                                ; preds = %2
  %10 = getelementptr inbounds nuw i8, ptr %0, i64 8
  %11 = load ptr, ptr %10, align 8, !tbaa !3
  %12 = lshr exact i32 %3, 1
  %13 = load i32, ptr %0, align 8, !tbaa !13
  %14 = mul i32 %13, %12
  %15 = zext i32 %14 to i64
  %16 = getelementptr inbounds nuw i32, ptr %11, i64 %15
  %17 = add i32 %13, -1
  %18 = zext i32 %17 to i64
  %19 = getelementptr inbounds nuw i32, ptr %16, i64 %18
  %20 = load i32, ptr %19, align 4, !tbaa !21
  %21 = icmp eq i32 %20, -2147483648
  br i1 %21, label %22, label %_ZNK12mpff_manager15min_significandERK4mpff.exit

22:                                               ; preds = %9
  %23 = tail call noundef zeroext i1 @_Z7is_zerojPKj(i32 noundef %17, ptr noundef nonnull %16)
  br label %_ZNK12mpff_manager15min_significandERK4mpff.exit

_ZNK12mpff_manager15min_significandERK4mpff.exit: ; preds = %22, %9, %2
  %24 = phi i1 [ false, %2 ], [ false, %9 ], [ %23, %22 ]
  ret i1 %24
}